#include <math.h>
#include <stdio.h>
#include <stdlib.h>
#include <string.h>

int main()
{
int w,a,b,s,d,f,g,h,j,k,l,r,i;
scanf("%d",&w);
i=13+w-1;	
a=44+w-1;
b=72+w-1;
s=103+w-1;
g=194+w-1;
h=225+w-1;
j=256+w-1;
k=286+w-1;
l=317+w-1;
r=347+w-1;
d=133+w-1;
f=164+w-1;
	if(i%7==5)
		{
			printf("1\n");
		}
    if(a%7==5)
		{
			printf("2\n");
		}
	if(b%7==5)
		{
			printf("3\n");
		}
    if(s%7==5)
		{
			printf("4\n");
		}
	if(d%7==5)
		{
			printf("5\n");
		}
	if(f%7==5)
		{
			printf("6\n");
		}
	if(g%7==5)
		{
			printf("7\n");
		}
	if(h%7==5)
		{
			printf("8\n");
		}
	if(j%7==5)
		{
			printf("9\n");
	}
	if(k%7==5)
		{
			printf("10\n");
		}
	if(l%7==5)
		{
			printf("11\n");
		}
	if(r%7==5)
		{
			printf("12");
		}
	return 0;
}
